; ModuleID = 'bench/z3/original/bv_theory_checker.ll'
source_filename = "bench/z3/original/bv_theory_checker.ll"
target datalayout = "e-m:e-p270:32:32-p271:32:32-p272:64:64-i64:64-i128:128-f80:128-n8:16:32:64-S128"
target triple = "x86_64-pc-linux-gnu"

%"class.std::ios_base::Init" = type { i8 }

@_ZStL8__ioinit = internal global %"class.std::ios_base::Init" zeroinitializer, align 1
@__dso_handle = external hidden global i8
@llvm.global_ctors = appending global [1 x { i32, ptr, ptr }] [{ i32, ptr, ptr } { i32 65535, ptr @_GLOBAL__sub_I_bv_theory_checker.cpp, ptr null }]

declare void @_ZNSt8ios_base4InitC1Ev(ptr noundef nonnull align 1 dereferenceable(1)) unnamed_addr #0

; Function Attrs: nounwind
declare void @_ZNSt8ios_base4InitD1Ev(ptr noundef nonnull align 1 dereferenceable(1)) unnamed_addr #1

; Function Attrs: nofree nounwind
declare i32 @__cxa_atexit(ptr, ptr, ptr) local_unnamed_addr #2

; Function Attrs: mustprogress nofree norecurse nosync nounwind willreturn memory(none) uwtable
define hidden noundef zeroext i1 @_ZN2bv14theory_checker8check_bvEP3app(ptr noundef nonnull readnone align 8 captures(none) dereferenceable(88) %0, ptr noundef readnone captures(none) %1) local_unnamed_addr #3 align 2 {
  ret i1 true
}

; Function Attrs: mustprogress nofree norecurse nosync nounwind willreturn memory(none) uwtable
define hidden noundef zeroext i1 @_ZN2bv14theory_checker12check_bit2eqEP3app(ptr noundef nonnull readnone align 8 captures(none) dereferenceable(88) %0, ptr noundef readnone captures(none) %1) local_unnamed_addr #3 align 2 {
  ret i1 true
}

; Function Attrs: mustprogress nofree norecurse nosync nounwind willreturn memory(none) uwtable
define hidden noundef zeroext i1 @_ZN2bv14theory_checker12check_bit2neEP3app(ptr noundef nonnull readnone align 8 captures(none) dereferenceable(88) %0, ptr noundef readnone captures(none) %1) local_unnamed_addr #3 align 2 {
  ret i1 true
}

; Function Attrs: mustprogress nofree norecurse nosync nounwind willreturn memory(none) uwtable
define hidden noundef zeroext i1 @_ZN2bv14theory_checker12check_eq2bitEP3app(ptr noundef nonnull readnone align 8 captures(none) dereferenceable(88) %0, ptr noundef readnone captures(none) %1) local_unnamed_addr #3 align 2 {
  ret i1 true
}

; Function Attrs: mustprogress nofree norecurse nosync nounwind willreturn memory(none) uwtable
define hidden noundef zeroext i1 @_ZN2bv14theory_checker12check_ne2bitEP3app(ptr noundef nonnull readnone align 8 captures(none) dereferenceable(88) %0, ptr noundef readnone captures(none) %1) local_unnamed_addr #3 align 2 {
  ret i1 true
}

; Function Attrs: mustprogress nofree norecurse nosync nounwind willreturn memory(none) uwtable
define hidden noundef zeroext i1 @_ZN2bv14theory_checker12check_bv2intEP3app(ptr noundef nonnull readnone align 8 captures(none) dereferenceable(88) %0, ptr noundef readnone captures(none) %1) local_unnamed_addr #3 align 2 {
  ret i1 true
}

; Function Attrs: uwtable
define internal void @_GLOBAL__sub_I_bv_theory_checker.cpp() #4 section ".text.startup" {
  tail call void @_ZNSt8ios_base4InitC1Ev(ptr noundef nonnull align 1 dereferenceable(1) @_ZStL8__ioinit)
  %1 = tail call i32 @__cxa_atexit(ptr nonnull @_ZNSt8ios_base4InitD1Ev, ptr nonnull @_ZStL8__ioinit, ptr nonnull @__dso_handle) #5
  ret void
}


!llvm.linker.options = !{}
!llvm.module.flags = !{!0, !1, !2}

!0 = !{i32 1, !"wchar_size", i32 4}
!1 = !{i32 8, !"PIC Level", i32 2}
!2 = !{i32 7, !"uwtable", i32 2}
